target datalayout = "e-m:e-p270:32:32-p271:32:32-p272:64:64-i64:64-i128:128-f80:128-n8:16:32:64-S128"
target triple = "x86_64-pc-linux-gnu"

%struct.jv = type { i8, i8, i16, i32, %union.anon }
%union.anon = type { ptr }
%struct.jv_refcnt = type { i32 }
%struct.jvp_object = type { %struct.jv_refcnt, i32, [0 x %struct.object_slot] }
%struct.object_slot = type { i32, i32, %struct.jv, %struct.jv }

; Function Attrs: nounwind uwtable
define internal void @jvp_refcnt_inc(ptr noundef %0) #0 {
  %2 = alloca ptr, align 8
  store ptr %0, ptr %2, align 8, !tbaa !83
  %3 = load ptr, ptr %2, align 8, !tbaa !83
  %4 = getelementptr inbounds nuw %struct.jv_refcnt, ptr %3, i32 0, i32 0
  %5 = load i32, ptr %4, align 4, !tbaa !68
  %6 = add nsw i32 %5, 1
  store i32 %6, ptr %4, align 4, !tbaa !68
  ret void
}

; Function Attrs: nounwind uwtable
define internal ptr @jvp_object_ptr(i64 %0, ptr %1) #0 {
  %3 = alloca %struct.jv, align 8
  %4 = getelementptr inbounds nuw { i64, ptr }, ptr %3, i32 0, i32 0
  store i64 %0, ptr %4, align 8
  %5 = getelementptr inbounds nuw { i64, ptr }, ptr %3, i32 0, i32 1
  store ptr %1, ptr %5, align 8
  %6 = getelementptr inbounds nuw %struct.jv, ptr %3, i32 0, i32 4
  %7 = load ptr, ptr %6, align 8, !tbaa !12
  ret ptr %7
}

; Function Attrs: nounwind uwtable
define dso_local { i64, ptr } @jv_copy(i64 %0, ptr %1) #0 {
  %3 = alloca %struct.jv, align 8
  %4 = alloca %struct.jv, align 8
  %5 = getelementptr inbounds nuw { i64, ptr }, ptr %4, i32 0, i32 0
  store i64 %0, ptr %5, align 8
  %6 = getelementptr inbounds nuw { i64, ptr }, ptr %4, i32 0, i32 1
  store ptr %1, ptr %6, align 8
  %7 = getelementptr inbounds nuw %struct.jv, ptr %4, i32 0, i32 0
  %8 = load i8, ptr %7, align 8, !tbaa !4
  %9 = zext i8 %8 to i32
  %10 = and i32 %9, 128
  %11 = icmp ne i32 %10, 0
  br i1 %11, label %12, label %15

12:                                               ; preds = %2
  %13 = getelementptr inbounds nuw %struct.jv, ptr %4, i32 0, i32 4
  %14 = load ptr, ptr %13, align 8, !tbaa !12
  call void @jvp_refcnt_inc(ptr noundef %14)
  br label %15

15:                                               ; preds = %12, %2
  call void @llvm.memcpy.p0.p0.i64(ptr align 8 %3, ptr align 8 %4, i64 16, i1 false), !tbaa.struct !11
  %16 = load { i64, ptr }, ptr %3, align 8
  ret { i64, ptr } %16
}

; Function Attrs: nounwind uwtable
define internal ptr @jvp_object_get_slot(i64 %0, ptr %1, i32 noundef %2) #0 {
  %4 = alloca ptr, align 8
  %5 = alloca %struct.jv, align 8
  %6 = alloca i32, align 4
  %7 = getelementptr inbounds nuw { i64, ptr }, ptr %5, i32 0, i32 0
  store i64 %0, ptr %7, align 8
  %8 = getelementptr inbounds nuw { i64, ptr }, ptr %5, i32 0, i32 1
  store ptr %1, ptr %8, align 8
  store i32 %2, ptr %6, align 4, !tbaa !10
  %9 = load i32, ptr %6, align 4, !tbaa !10
  %10 = icmp eq i32 %9, -1
  br i1 %10, label %11, label %12

11:                                               ; preds = %3
  store ptr null, ptr %4, align 8
  br label %22

12:                                               ; preds = %3
  %13 = getelementptr inbounds nuw { i64, ptr }, ptr %5, i32 0, i32 0
  %14 = load i64, ptr %13, align 8
  %15 = getelementptr inbounds nuw { i64, ptr }, ptr %5, i32 0, i32 1
  %16 = load ptr, ptr %15, align 8
  %17 = call ptr @jvp_object_ptr(i64 %14, ptr %16)
  %18 = getelementptr inbounds nuw %struct.jvp_object, ptr %17, i32 0, i32 2
  %19 = load i32, ptr %6, align 4, !tbaa !10
  %20 = sext i32 %19 to i64
  %21 = getelementptr inbounds [0 x %struct.object_slot], ptr %18, i64 0, i64 %20
  store ptr %21, ptr %4, align 8
  br label %22

22:                                               ; preds = %12, %11
  %23 = load ptr, ptr %4, align 8
  ret ptr %23
}

; Function Attrs: nounwind uwtable
define dso_local { i64, ptr } @jv_object_iter_key(i64 %0, ptr %1, i32 noundef %2) #0 {
  %4 = alloca %struct.jv, align 8
  %5 = alloca %struct.jv, align 8
  %6 = alloca i32, align 4
  %7 = alloca %struct.jv, align 8
  %8 = getelementptr inbounds nuw { i64, ptr }, ptr %5, i32 0, i32 0
  store i64 %0, ptr %8, align 8
  %9 = getelementptr inbounds nuw { i64, ptr }, ptr %5, i32 0, i32 1
  store ptr %1, ptr %9, align 8
  store i32 %2, ptr %6, align 4, !tbaa !10
  call void @llvm.lifetime.start.p0(i64 16, ptr %7) #11
  %10 = load i32, ptr %6, align 4, !tbaa !10
  %11 = getelementptr inbounds nuw { i64, ptr }, ptr %5, i32 0, i32 0
  %12 = load i64, ptr %11, align 8
  %13 = getelementptr inbounds nuw { i64, ptr }, ptr %5, i32 0, i32 1
  %14 = load ptr, ptr %13, align 8
  %15 = call ptr @jvp_object_get_slot(i64 %12, ptr %14, i32 noundef %10)
  %16 = getelementptr inbounds nuw %struct.object_slot, ptr %15, i32 0, i32 2
  call void @llvm.memcpy.p0.p0.i64(ptr align 8 %7, ptr align 8 %16, i64 16, i1 false), !tbaa.struct !11
  %17 = getelementptr inbounds nuw { i64, ptr }, ptr %7, i32 0, i32 0
  %18 = load i64, ptr %17, align 8
  %19 = getelementptr inbounds nuw { i64, ptr }, ptr %7, i32 0, i32 1
  %20 = load ptr, ptr %19, align 8
  %21 = call { i64, ptr } @jv_copy(i64 %18, ptr %20)
  %22 = getelementptr inbounds nuw { i64, ptr }, ptr %4, i32 0, i32 0
  %23 = extractvalue { i64, ptr } %21, 0
  store i64 %23, ptr %22, align 8
  %24 = getelementptr inbounds nuw { i64, ptr }, ptr %4, i32 0, i32 1
  %25 = extractvalue { i64, ptr } %21, 1
  store ptr %25, ptr %24, align 8
  call void @llvm.lifetime.end.p0(i64 16, ptr %7) #11
  %26 = load { i64, ptr }, ptr %4, align 8
  ret { i64, ptr } %26
}