; Function Attrs: mustprogress nofree norecurse nosync nounwind willreturn memory(readwrite, inaccessiblemem: none) uwtable
define dso_local { i64, ptr } @jv_object_iter_key(i64 %0, ptr readonly captures(none) %1, i32 noundef %2) local_unnamed_addr #15 {
  %4 = icmp eq i32 %2, -1
  %5 = getelementptr inbounds nuw i8, ptr %1, i64 8
  %6 = sext i32 %2 to i64
  %7 = getelementptr inbounds [0 x %struct.object_slot], ptr %5, i64 0, i64 %6
  %.0.i = select i1 %4, ptr null, ptr %7
  %8 = getelementptr inbounds nuw i8, ptr %.0.i, i64 8
  %.sroa.0.0.copyload = load i64, ptr %8, align 8
  %.sroa.4.0..sroa_idx = getelementptr inbounds nuw i8, ptr %.0.i, i64 16
  %.sroa.4.0.copyload = load ptr, ptr %.sroa.4.0..sroa_idx, align 8, !tbaa !8
  %9 = and i64 %.sroa.0.0.copyload, 128
  %.not.i = icmp eq i64 %9, 0
  br i1 %.not.i, label %jv_copy.exit, label %10

10:                                               ; preds = %3
  %11 = load i32, ptr %.sroa.4.0.copyload, align 4, !tbaa !9
  %12 = add nsw i32 %11, 1
  store i32 %12, ptr %.sroa.4.0.copyload, align 4, !tbaa !9
  br label %jv_copy.exit

jv_copy.exit:                                     ; preds = %3, %10
  %.fca.0.insert.i = insertvalue { i64, ptr } poison, i64 %.sroa.0.0.copyload, 0
  %.fca.1.insert.i = insertvalue { i64, ptr } %.fca.0.insert.i, ptr %.sroa.4.0.copyload, 1
  ret { i64, ptr } %.fca.1.insert.i
}